; Function Attrs: mustprogress uwtable
define internal void @_ZNK32pxrInternal_v0_24__pxrReserved__12_GLOBAL__N_120_DispatchingResolver18_OpenAssetForWriteERKNS_14ArResolvedPathENS_10ArResolver9WriteModeE(ptr dead_on_unwind noalias writable sret(%"class.std::shared_ptr.42") align 8 %0, ptr nocapture noundef nonnull readonly align 8 dereferenceable(320) %1, ptr noundef nonnull align 8 dereferenceable(32) %2, i32 noundef %3) unnamed_addr #0 align 2 {
  %5 = alloca %"class.pxrInternal_v0_24__pxrReserved__::TfCallContext", align 8
  %6 = tail call fastcc noundef ptr @_ZNK32pxrInternal_v0_24__pxrReserved__12_GLOBAL__N_120_DispatchingResolver15_GetURIResolverERKNSt7__cxx1112basic_stringIcSt11char_traitsIcESaIcEEEPPKNS0_13_ResolverInfoE(ptr noundef nonnull readonly align 8 dereferenceable(320) %1, ptr noundef nonnull align 8 dereferenceable(32) %2, ptr noundef null)
  %.not.i = icmp eq ptr %6, null
  br i1 %.not.i, label %7, label %_ZNK32pxrInternal_v0_24__pxrReserved__12_GLOBAL__N_120_DispatchingResolver12_GetResolverERKNSt7__cxx1112basic_stringIcSt11char_traitsIcESaIcEEEPPKNS0_13_ResolverInfoE.exit

7:                                                ; preds = %4
  %8 = getelementptr inbounds nuw i8, ptr %1, i64 8
  %.val.i = load ptr, ptr %8, align 8
  %9 = tail call fastcc noundef ptr @_ZN32pxrInternal_v0_24__pxrReserved__12_GLOBAL__N_115_PluginResolverINS_10ArResolverENS_22Ar_ResolverFactoryBaseEE3GetEv(ptr noundef nonnull align 8 dereferenceable(88) %.val.i)
  br label %_ZNK32pxrInternal_v0_24__pxrReserved__12_GLOBAL__N_120_DispatchingResolver12_GetResolverERKNSt7__cxx1112basic_stringIcSt11char_traitsIcESaIcEEEPPKNS0_13_ResolverInfoE.exit

_ZNK32pxrInternal_v0_24__pxrReserved__12_GLOBAL__N_120_DispatchingResolver12_GetResolverERKNSt7__cxx1112basic_stringIcSt11char_traitsIcESaIcEEEPPKNS0_13_ResolverInfoE.exit: ; preds = %4, %7
  %.0.i = phi ptr [ %9, %7 ], [ %6, %4 ]
  %10 = tail call noundef zeroext i1 @_ZN32pxrInternal_v0_24__pxrReserved__23ArIsPackageRelativePathERKNSt7__cxx1112basic_stringIcSt11char_traitsIcESaIcEEE(ptr noundef nonnull align 8 dereferenceable(32) %2)
  br i1 %10, label %11, label %16

11:                                               ; preds = %_ZNK32pxrInternal_v0_24__pxrReserved__12_GLOBAL__N_120_DispatchingResolver12_GetResolverERKNSt7__cxx1112basic_stringIcSt11char_traitsIcESaIcEEEPPKNS0_13_ResolverInfoE.exit
  store ptr @.str.12, ptr %5, align 8
  %12 = getelementptr inbounds nuw i8, ptr %5, i64 8
  store ptr @__func__._ZNK32pxrInternal_v0_24__pxrReserved__12_GLOBAL__N_120_DispatchingResolver18_OpenAssetForWriteERKNS_14ArResolvedPathENS_10ArResolver9WriteModeE, ptr %12, align 8
  %13 = getelementptr inbounds nuw i8, ptr %5, i64 16
  store i64 919, ptr %13, align 8
  %14 = getelementptr inbounds nuw i8, ptr %5, i64 24
  store ptr @__PRETTY_FUNCTION__._ZNK32pxrInternal_v0_24__pxrReserved__12_GLOBAL__N_120_DispatchingResolver18_OpenAssetForWriteERKNS_14ArResolvedPathENS_10ArResolver9WriteModeE, ptr %14, align 8
  %15 = getelementptr inbounds nuw i8, ptr %5, i64 32
  store i8 0, ptr %15, align 8
  call void (ptr, i32, ptr, ...) @_ZN32pxrInternal_v0_24__pxrReserved__18Tf_PostErrorHelperERKNS_13TfCallContextENS_16TfDiagnosticTypeEPKcz(ptr noundef nonnull align 8 dereferenceable(33) %5, i32 noundef 1, ptr noundef nonnull @.str.54)
  call void @llvm.memset.p0.i64(ptr noundef nonnull align 8 dereferenceable(16) %0, i8 0, i64 16, i1 false)
  br label %20

16:                                               ; preds = %_ZNK32pxrInternal_v0_24__pxrReserved__12_GLOBAL__N_120_DispatchingResolver12_GetResolverERKNSt7__cxx1112basic_stringIcSt11char_traitsIcESaIcEEEPPKNS0_13_ResolverInfoE.exit
  %17 = load ptr, ptr %.0.i, align 8, !noalias !154
  %18 = getelementptr inbounds i8, ptr %17, i64 152
  %19 = load ptr, ptr %18, align 8, !noalias !154
  tail call void %19(ptr dead_on_unwind writable sret(%"class.std::shared_ptr.42") align 8 %0, ptr noundef nonnull align 8 dereferenceable(8) %.0.i, ptr noundef nonnull align 8 dereferenceable(32) %2, i32 noundef %3)
  br label %20

20:                                               ; preds = %16, %11
  ret void
}